; Function Attrs: nounwind uwtable
define internal fastcc void @_jumbleDeallocateStmt(ptr noundef captures(none) %0, ptr noundef nonnull readonly captures(none) %1) unnamed_addr #0 {
  %3 = getelementptr inbounds nuw i8, ptr %1, i64 16
  %4 = load ptr, ptr %0, align 8
  %5 = getelementptr inbounds nuw i8, ptr %0, i64 8
  %6 = load i64, ptr %5, align 8
  br label %.lr.ph.i

.lr.ph.i:                                         ; preds = %10, %2
  %.026.i = phi ptr [ %15, %10 ], [ %3, %2 ]
  %.02125.i = phi i64 [ %16, %10 ], [ 1, %2 ]
  %.02224.i = phi i64 [ %14, %10 ], [ %6, %2 ]
  %7 = icmp ugt i64 %.02224.i, 1023
  br i1 %7, label %8, label %10

8:                                                ; preds = %.lr.ph.i
  %9 = tail call i64 @hash_bytes_extended(ptr noundef %4, i32 noundef 1024, i64 noundef 0) #9
  store i64 %9, ptr %4, align 1
  br label %10

10:                                               ; preds = %8, %.lr.ph.i
  %.1.i = phi i64 [ 8, %8 ], [ %.02224.i, %.lr.ph.i ]
  %11 = sub nuw nsw i64 1024, %.1.i
  %12 = tail call i64 @llvm.umin.i64(i64 %.02125.i, i64 %11)
  %13 = getelementptr inbounds nuw i8, ptr %4, i64 %.1.i
  tail call void @llvm.memcpy.p0.p0.i64(ptr noundef nonnull align 1 dereferenceable(1) %13, ptr noundef nonnull align 1 dereferenceable(1) %.026.i, i64 %12, i1 false)
  %14 = add nuw nsw i64 %12, %.1.i
  %15 = getelementptr inbounds nuw i8, ptr %.026.i, i64 %12
  %16 = sub i64 %.02125.i, %12
  %.not.i = icmp eq i64 %16, 0
  br i1 %.not.i, label %AppendJumble.exit, label %.lr.ph.i, !llvm.loop !7

AppendJumble.exit:                                ; preds = %10
  store i64 %14, ptr %5, align 8
  %17 = getelementptr inbounds nuw i8, ptr %1, i64 20
  %18 = load i32, ptr %17, align 4
  %19 = icmp sgt i32 %18, -1
  br i1 %19, label %20, label %RecordConstLocation.exit

20:                                               ; preds = %AppendJumble.exit
  %21 = getelementptr inbounds nuw i8, ptr %0, i64 28
  %22 = load i32, ptr %21, align 4
  %23 = getelementptr inbounds nuw i8, ptr %0, i64 24
  %24 = load i32, ptr %23, align 8
  %.not.i5 = icmp slt i32 %22, %24
  br i1 %.not.i5, label %._crit_edge.i, label %25

._crit_edge.i:                                    ; preds = %20
  %.phi.trans.insert.i = getelementptr inbounds nuw i8, ptr %0, i64 16
  %.pre.i = load ptr, ptr %.phi.trans.insert.i, align 8
  br label %32

25:                                               ; preds = %20
  %26 = shl i32 %24, 1
  store i32 %26, ptr %23, align 8
  %27 = getelementptr inbounds nuw i8, ptr %0, i64 16
  %28 = load ptr, ptr %27, align 8
  %29 = sext i32 %26 to i64
  %30 = shl nsw i64 %29, 3
  %31 = tail call ptr @repalloc(ptr noundef %28, i64 noundef %30) #9
  store ptr %31, ptr %27, align 8
  %.pre13.i = load i32, ptr %21, align 4
  br label %32

32:                                               ; preds = %25, %._crit_edge.i
  %33 = phi i32 [ %22, %._crit_edge.i ], [ %.pre13.i, %25 ]
  %34 = phi ptr [ %.pre.i, %._crit_edge.i ], [ %31, %25 ]
  %35 = getelementptr inbounds nuw i8, ptr %0, i64 16
  %36 = sext i32 %33 to i64
  %37 = getelementptr inbounds %struct.LocationLen, ptr %34, i64 %36
  store i32 %18, ptr %37, align 4
  %38 = load ptr, ptr %35, align 8
  %39 = load i32, ptr %21, align 4
  %40 = sext i32 %39 to i64
  %41 = getelementptr inbounds %struct.LocationLen, ptr %38, i64 %40, i32 1
  store i32 -1, ptr %41, align 4
  %42 = load i32, ptr %21, align 4
  %43 = add i32 %42, 1
  store i32 %43, ptr %21, align 4
  br label %RecordConstLocation.exit

RecordConstLocation.exit:                         ; preds = %AppendJumble.exit, %32
  ret void
}